target datalayout = "e-m:e-p270:32:32-p271:32:32-p272:64:64-i64:64-i128:128-f80:128-n8:16:32:64-S128"
target triple = "x86_64-pc-linux-gnu"

%struct.mbedtls_pk_info_t = type { i32, ptr, ptr, ptr, ptr, ptr, ptr, ptr, ptr, ptr, ptr, ptr }

@mbedtls_rsa_info = external constant %struct.mbedtls_pk_info_t, align 8
@mbedtls_eckey_info = external constant %struct.mbedtls_pk_info_t, align 8
@mbedtls_eckeydh_info = external constant %struct.mbedtls_pk_info_t, align 8
@mbedtls_ecdsa_info = external constant %struct.mbedtls_pk_info_t, align 8

; Function Attrs: nounwind uwtable
define hidden ptr @mbedtls_pk_info_from_type(i32 noundef %0) #0 {
  %2 = alloca ptr, align 8
  %3 = alloca i32, align 4
  store i32 %0, ptr %3, align 4, !tbaa !16
  %4 = load i32, ptr %3, align 4, !tbaa !16
  switch i32 %4, label %9 [
    i32 1, label %5
    i32 2, label %6
    i32 3, label %7
    i32 4, label %8
  ]

5:                                                ; preds = %1
  store ptr @mbedtls_rsa_info, ptr %2, align 8
  br label %10

6:                                                ; preds = %1
  store ptr @mbedtls_eckey_info, ptr %2, align 8
  br label %10

7:                                                ; preds = %1
  store ptr @mbedtls_eckeydh_info, ptr %2, align 8
  br label %10

8:                                                ; preds = %1
  store ptr @mbedtls_ecdsa_info, ptr %2, align 8
  br label %10

9:                                                ; preds = %1
  store ptr null, ptr %2, align 8
  br label %10

10:                                               ; preds = %9, %8, %7, %6, %5
  %11 = load ptr, ptr %2, align 8
  ret ptr %11
}